target datalayout = "e-m:e-p270:32:32-p271:32:32-p272:64:64-i64:64-i128:128-f80:128-n8:16:32:64-S128"
target triple = "x86_64-pc-linux-gnu"

%struct.ossl_list_st_uint_set = type { ptr, ptr, i64 }
%struct.uint_set_item_st = type { %struct.anon, %struct.uint_range_st }
%struct.anon = type { ptr, ptr }
%struct.uint_range_st = type { i64, i64 }

@.str = private unnamed_addr constant [31 x i8] c"../openssl/ssl/quic/uint_set.c\00", align 1

; Function Attrs: inlinehint nounwind uwtable
define internal void @ossl_list_uint_set_init_elem(ptr noundef %0) #1 {
  %2 = alloca ptr, align 8
  store ptr %0, ptr %2, align 8, !tbaa !8
  %3 = load ptr, ptr %2, align 8, !tbaa !8
  %4 = getelementptr inbounds nuw %struct.uint_set_item_st, ptr %3, i32 0, i32 0
  call void @llvm.memset.p0.i64(ptr align 8 %4, i8 0, i64 16, i1 false)
  ret void
}

; Function Attrs: inlinehint nounwind uwtable
define internal void @ossl_list_uint_set_insert_after(ptr noundef %0, ptr noundef %1, ptr noundef %2) #1 {
  %4 = alloca ptr, align 8
  %5 = alloca ptr, align 8
  %6 = alloca ptr, align 8
  store ptr %0, ptr %4, align 8, !tbaa !3
  store ptr %1, ptr %5, align 8, !tbaa !8
  store ptr %2, ptr %6, align 8, !tbaa !8
  %7 = load ptr, ptr %5, align 8, !tbaa !8
  %8 = load ptr, ptr %6, align 8, !tbaa !8
  %9 = getelementptr inbounds nuw %struct.uint_set_item_st, ptr %8, i32 0, i32 0
  %10 = getelementptr inbounds nuw %struct.anon, ptr %9, i32 0, i32 1
  store ptr %7, ptr %10, align 8, !tbaa !31
  %11 = load ptr, ptr %5, align 8, !tbaa !8
  %12 = getelementptr inbounds nuw %struct.uint_set_item_st, ptr %11, i32 0, i32 0
  %13 = getelementptr inbounds nuw %struct.anon, ptr %12, i32 0, i32 0
  %14 = load ptr, ptr %13, align 8, !tbaa !15
  %15 = load ptr, ptr %6, align 8, !tbaa !8
  %16 = getelementptr inbounds nuw %struct.uint_set_item_st, ptr %15, i32 0, i32 0
  %17 = getelementptr inbounds nuw %struct.anon, ptr %16, i32 0, i32 0
  store ptr %14, ptr %17, align 8, !tbaa !15
  %18 = load ptr, ptr %5, align 8, !tbaa !8
  %19 = getelementptr inbounds nuw %struct.uint_set_item_st, ptr %18, i32 0, i32 0
  %20 = getelementptr inbounds nuw %struct.anon, ptr %19, i32 0, i32 0
  %21 = load ptr, ptr %20, align 8, !tbaa !15
  %22 = icmp ne ptr %21, null
  br i1 %22, label %23, label %31

23:                                               ; preds = %3
  %24 = load ptr, ptr %6, align 8, !tbaa !8
  %25 = load ptr, ptr %5, align 8, !tbaa !8
  %26 = getelementptr inbounds nuw %struct.uint_set_item_st, ptr %25, i32 0, i32 0
  %27 = getelementptr inbounds nuw %struct.anon, ptr %26, i32 0, i32 0
  %28 = load ptr, ptr %27, align 8, !tbaa !15
  %29 = getelementptr inbounds nuw %struct.uint_set_item_st, ptr %28, i32 0, i32 0
  %30 = getelementptr inbounds nuw %struct.anon, ptr %29, i32 0, i32 1
  store ptr %24, ptr %30, align 8, !tbaa !31
  br label %31

31:                                               ; preds = %23, %3
  %32 = load ptr, ptr %6, align 8, !tbaa !8
  %33 = load ptr, ptr %5, align 8, !tbaa !8
  %34 = getelementptr inbounds nuw %struct.uint_set_item_st, ptr %33, i32 0, i32 0
  %35 = getelementptr inbounds nuw %struct.anon, ptr %34, i32 0, i32 0
  store ptr %32, ptr %35, align 8, !tbaa !15
  %36 = load ptr, ptr %4, align 8, !tbaa !3
  %37 = getelementptr inbounds nuw %struct.ossl_list_st_uint_set, ptr %36, i32 0, i32 1
  %38 = load ptr, ptr %37, align 8, !tbaa !32
  %39 = load ptr, ptr %5, align 8, !tbaa !8
  %40 = icmp eq ptr %38, %39
  br i1 %40, label %41, label %45

41:                                               ; preds = %31
  %42 = load ptr, ptr %6, align 8, !tbaa !8
  %43 = load ptr, ptr %4, align 8, !tbaa !3
  %44 = getelementptr inbounds nuw %struct.ossl_list_st_uint_set, ptr %43, i32 0, i32 1
  store ptr %42, ptr %44, align 8, !tbaa !32
  br label %45

45:                                               ; preds = %41, %31
  %46 = load ptr, ptr %4, align 8, !tbaa !3
  %47 = getelementptr inbounds nuw %struct.ossl_list_st_uint_set, ptr %46, i32 0, i32 2
  %48 = load i64, ptr %47, align 8, !tbaa !30
  %49 = add i64 %48, 1
  store i64 %49, ptr %47, align 8, !tbaa !30
  ret void
}

; Function Attrs: nounwind uwtable
define internal ptr @create_set_item(i64 noundef %0, i64 noundef %1) #0 {
  %3 = alloca ptr, align 8
  %4 = alloca i64, align 8
  %5 = alloca i64, align 8
  %6 = alloca ptr, align 8
  %7 = alloca i32, align 4
  store i64 %0, ptr %4, align 8, !tbaa !22
  store i64 %1, ptr %5, align 8, !tbaa !22
  call void @llvm.lifetime.start.p0(i64 8, ptr %6) #6
  %8 = call noalias ptr @CRYPTO_malloc(i64 noundef 32, ptr noundef @.str, i32 noundef 114)
  store ptr %8, ptr %6, align 8, !tbaa !8
  %9 = load ptr, ptr %6, align 8, !tbaa !8
  %10 = icmp eq ptr %9, null
  br i1 %10, label %11, label %12

11:                                               ; preds = %2
  store ptr null, ptr %3, align 8
  store i32 1, ptr %7, align 4
  br label %23

12:                                               ; preds = %2
  %13 = load ptr, ptr %6, align 8, !tbaa !8
  call void @ossl_list_uint_set_init_elem(ptr noundef %13)
  %14 = load i64, ptr %4, align 8, !tbaa !22
  %15 = load ptr, ptr %6, align 8, !tbaa !8
  %16 = getelementptr inbounds nuw %struct.uint_set_item_st, ptr %15, i32 0, i32 1
  %17 = getelementptr inbounds nuw %struct.uint_range_st, ptr %16, i32 0, i32 0
  store i64 %14, ptr %17, align 8, !tbaa !25
  %18 = load i64, ptr %5, align 8, !tbaa !22
  %19 = load ptr, ptr %6, align 8, !tbaa !8
  %20 = getelementptr inbounds nuw %struct.uint_set_item_st, ptr %19, i32 0, i32 1
  %21 = getelementptr inbounds nuw %struct.uint_range_st, ptr %20, i32 0, i32 1
  store i64 %18, ptr %21, align 8, !tbaa !24
  %22 = load ptr, ptr %6, align 8, !tbaa !8
  store ptr %22, ptr %3, align 8
  store i32 1, ptr %7, align 4
  br label %23

23:                                               ; preds = %12, %11
  call void @llvm.lifetime.end.p0(i64 8, ptr %6) #6
  %24 = load ptr, ptr %3, align 8
  ret ptr %24
}

; Function Attrs: inlinehint nounwind uwtable
define internal void @ossl_list_uint_set_remove(ptr noundef %0, ptr noundef %1) #1 {
  %3 = alloca ptr, align 8
  %4 = alloca ptr, align 8
  store ptr %0, ptr %3, align 8, !tbaa !3
  store ptr %1, ptr %4, align 8, !tbaa !8
  %5 = load ptr, ptr %3, align 8, !tbaa !3
  %6 = getelementptr inbounds nuw %struct.ossl_list_st_uint_set, ptr %5, i32 0, i32 0
  %7 = load ptr, ptr %6, align 8, !tbaa !12
  %8 = load ptr, ptr %4, align 8, !tbaa !8
  %9 = icmp eq ptr %7, %8
  br i1 %9, label %10, label %17

10:                                               ; preds = %2
  %11 = load ptr, ptr %4, align 8, !tbaa !8
  %12 = getelementptr inbounds nuw %struct.uint_set_item_st, ptr %11, i32 0, i32 0
  %13 = getelementptr inbounds nuw %struct.anon, ptr %12, i32 0, i32 0
  %14 = load ptr, ptr %13, align 8, !tbaa !15
  %15 = load ptr, ptr %3, align 8, !tbaa !3
  %16 = getelementptr inbounds nuw %struct.ossl_list_st_uint_set, ptr %15, i32 0, i32 0
  store ptr %14, ptr %16, align 8, !tbaa !12
  br label %17

17:                                               ; preds = %10, %2
  %18 = load ptr, ptr %3, align 8, !tbaa !3
  %19 = getelementptr inbounds nuw %struct.ossl_list_st_uint_set, ptr %18, i32 0, i32 1
  %20 = load ptr, ptr %19, align 8, !tbaa !32
  %21 = load ptr, ptr %4, align 8, !tbaa !8
  %22 = icmp eq ptr %20, %21
  br i1 %22, label %23, label %30

23:                                               ; preds = %17
  %24 = load ptr, ptr %4, align 8, !tbaa !8
  %25 = getelementptr inbounds nuw %struct.uint_set_item_st, ptr %24, i32 0, i32 0
  %26 = getelementptr inbounds nuw %struct.anon, ptr %25, i32 0, i32 1
  %27 = load ptr, ptr %26, align 8, !tbaa !31
  %28 = load ptr, ptr %3, align 8, !tbaa !3
  %29 = getelementptr inbounds nuw %struct.ossl_list_st_uint_set, ptr %28, i32 0, i32 1
  store ptr %27, ptr %29, align 8, !tbaa !32
  br label %30

30:                                               ; preds = %23, %17
  %31 = load ptr, ptr %4, align 8, !tbaa !8
  %32 = getelementptr inbounds nuw %struct.uint_set_item_st, ptr %31, i32 0, i32 0
  %33 = getelementptr inbounds nuw %struct.anon, ptr %32, i32 0, i32 1
  %34 = load ptr, ptr %33, align 8, !tbaa !31
  %35 = icmp ne ptr %34, null
  br i1 %35, label %36, label %47

36:                                               ; preds = %30
  %37 = load ptr, ptr %4, align 8, !tbaa !8
  %38 = getelementptr inbounds nuw %struct.uint_set_item_st, ptr %37, i32 0, i32 0
  %39 = getelementptr inbounds nuw %struct.anon, ptr %38, i32 0, i32 0
  %40 = load ptr, ptr %39, align 8, !tbaa !15
  %41 = load ptr, ptr %4, align 8, !tbaa !8
  %42 = getelementptr inbounds nuw %struct.uint_set_item_st, ptr %41, i32 0, i32 0
  %43 = getelementptr inbounds nuw %struct.anon, ptr %42, i32 0, i32 1
  %44 = load ptr, ptr %43, align 8, !tbaa !31
  %45 = getelementptr inbounds nuw %struct.uint_set_item_st, ptr %44, i32 0, i32 0
  %46 = getelementptr inbounds nuw %struct.anon, ptr %45, i32 0, i32 0
  store ptr %40, ptr %46, align 8, !tbaa !15
  br label %47

47:                                               ; preds = %36, %30
  %48 = load ptr, ptr %4, align 8, !tbaa !8
  %49 = getelementptr inbounds nuw %struct.uint_set_item_st, ptr %48, i32 0, i32 0
  %50 = getelementptr inbounds nuw %struct.anon, ptr %49, i32 0, i32 0
  %51 = load ptr, ptr %50, align 8, !tbaa !15
  %52 = icmp ne ptr %51, null
  br i1 %52, label %53, label %64

53:                                               ; preds = %47
  %54 = load ptr, ptr %4, align 8, !tbaa !8
  %55 = getelementptr inbounds nuw %struct.uint_set_item_st, ptr %54, i32 0, i32 0
  %56 = getelementptr inbounds nuw %struct.anon, ptr %55, i32 0, i32 1
  %57 = load ptr, ptr %56, align 8, !tbaa !31
  %58 = load ptr, ptr %4, align 8, !tbaa !8
  %59 = getelementptr inbounds nuw %struct.uint_set_item_st, ptr %58, i32 0, i32 0
  %60 = getelementptr inbounds nuw %struct.anon, ptr %59, i32 0, i32 0
  %61 = load ptr, ptr %60, align 8, !tbaa !15
  %62 = getelementptr inbounds nuw %struct.uint_set_item_st, ptr %61, i32 0, i32 0
  %63 = getelementptr inbounds nuw %struct.anon, ptr %62, i32 0, i32 1
  store ptr %57, ptr %63, align 8, !tbaa !31
  br label %64

64:                                               ; preds = %53, %47
  %65 = load ptr, ptr %3, align 8, !tbaa !3
  %66 = getelementptr inbounds nuw %struct.ossl_list_st_uint_set, ptr %65, i32 0, i32 2
  %67 = load i64, ptr %66, align 8, !tbaa !30
  %68 = add i64 %67, -1
  store i64 %68, ptr %66, align 8, !tbaa !30
  %69 = load ptr, ptr %4, align 8, !tbaa !8
  %70 = getelementptr inbounds nuw %struct.uint_set_item_st, ptr %69, i32 0, i32 0
  call void @llvm.memset.p0.i64(ptr align 8 %70, i8 0, i64 16, i1 false)
  ret void
}

; Function Attrs: inlinehint nounwind uwtable
define internal ptr @ossl_list_uint_set_prev(ptr noundef %0) #1 {
  %2 = alloca ptr, align 8
  store ptr %0, ptr %2, align 8, !tbaa !8
  %3 = load ptr, ptr %2, align 8, !tbaa !8
  %4 = getelementptr inbounds nuw %struct.uint_set_item_st, ptr %3, i32 0, i32 0
  %5 = getelementptr inbounds nuw %struct.anon, ptr %4, i32 0, i32 1
  %6 = load ptr, ptr %5, align 8, !tbaa !31
  ret ptr %6
}

; Function Attrs: inlinehint nounwind uwtable
define internal ptr @ossl_list_uint_set_tail(ptr noundef %0) #1 {
  %2 = alloca ptr, align 8
  store ptr %0, ptr %2, align 8, !tbaa !3
  %3 = load ptr, ptr %2, align 8, !tbaa !3
  %4 = getelementptr inbounds nuw %struct.ossl_list_st_uint_set, ptr %3, i32 0, i32 1
  %5 = load ptr, ptr %4, align 8, !tbaa !32
  ret ptr %5
}

; Function Attrs: nounwind uwtable
define i32 @ossl_uint_set_remove(ptr noundef %0, ptr noundef %1) #0 {
  %3 = alloca i32, align 4
  %4 = alloca ptr, align 8
  %5 = alloca ptr, align 8
  %6 = alloca ptr, align 8
  %7 = alloca ptr, align 8
  %8 = alloca ptr, align 8
  %9 = alloca i64, align 8
  %10 = alloca i64, align 8
  %11 = alloca i32, align 4
  store ptr %0, ptr %4, align 8, !tbaa !3
  store ptr %1, ptr %5, align 8, !tbaa !19
  call void @llvm.lifetime.start.p0(i64 8, ptr %6) #6
  call void @llvm.lifetime.start.p0(i64 8, ptr %7) #6
  call void @llvm.lifetime.start.p0(i64 8, ptr %8) #6
  call void @llvm.lifetime.start.p0(i64 8, ptr %9) #6
  %12 = load ptr, ptr %5, align 8, !tbaa !19
  %13 = getelementptr inbounds nuw %struct.uint_range_st, ptr %12, i32 0, i32 0
  %14 = load i64, ptr %13, align 8, !tbaa !21
  store i64 %14, ptr %9, align 8, !tbaa !22
  call void @llvm.lifetime.start.p0(i64 8, ptr %10) #6
  %15 = load ptr, ptr %5, align 8, !tbaa !19
  %16 = getelementptr inbounds nuw %struct.uint_range_st, ptr %15, i32 0, i32 1
  %17 = load i64, ptr %16, align 8, !tbaa !23
  store i64 %17, ptr %10, align 8, !tbaa !22
  %18 = load i64, ptr %9, align 8, !tbaa !22
  %19 = load i64, ptr %10, align 8, !tbaa !22
  %20 = icmp ule i64 %18, %19
  %21 = zext i1 %20 to i32
  %22 = icmp ne i32 %21, 0
  %23 = xor i1 %22, true
  %24 = xor i1 %23, true
  %25 = zext i1 %24 to i32
  %26 = sext i32 %25 to i64
  %27 = call i64 @llvm.expect.i64(i64 %26, i64 1)
  %28 = icmp ne i64 %27, 0
  br i1 %28, label %30, label %29

29:                                               ; preds = %2
  store i32 0, ptr %3, align 4
  store i32 1, ptr %11, align 4
  br label %135

30:                                               ; preds = %2
  %31 = load ptr, ptr %4, align 8, !tbaa !3
  %32 = call ptr @ossl_list_uint_set_tail(ptr noundef %31)
  store ptr %32, ptr %6, align 8, !tbaa !8
  br label %33

33:                                               ; preds = %132, %30
  %34 = load ptr, ptr %6, align 8, !tbaa !8
  %35 = icmp ne ptr %34, null
  br i1 %35, label %36, label %134

36:                                               ; preds = %33
  %37 = load ptr, ptr %6, align 8, !tbaa !8
  %38 = call ptr @ossl_list_uint_set_prev(ptr noundef %37)
  store ptr %38, ptr %7, align 8, !tbaa !8
  %39 = load i64, ptr %9, align 8, !tbaa !22
  %40 = load ptr, ptr %6, align 8, !tbaa !8
  %41 = getelementptr inbounds nuw %struct.uint_set_item_st, ptr %40, i32 0, i32 1
  %42 = getelementptr inbounds nuw %struct.uint_range_st, ptr %41, i32 0, i32 1
  %43 = load i64, ptr %42, align 8, !tbaa !24
  %44 = icmp ugt i64 %39, %43
  br i1 %44, label %45, label %46

45:                                               ; preds = %36
  br label %134

46:                                               ; preds = %36
  %47 = load i64, ptr %9, align 8, !tbaa !22
  %48 = load ptr, ptr %6, align 8, !tbaa !8
  %49 = getelementptr inbounds nuw %struct.uint_set_item_st, ptr %48, i32 0, i32 1
  %50 = getelementptr inbounds nuw %struct.uint_range_st, ptr %49, i32 0, i32 0
  %51 = load i64, ptr %50, align 8, !tbaa !25
  %52 = icmp ule i64 %47, %51
  br i1 %52, label %53, label %64

53:                                               ; preds = %46
  %54 = load i64, ptr %10, align 8, !tbaa !22
  %55 = load ptr, ptr %6, align 8, !tbaa !8
  %56 = getelementptr inbounds nuw %struct.uint_set_item_st, ptr %55, i32 0, i32 1
  %57 = getelementptr inbounds nuw %struct.uint_range_st, ptr %56, i32 0, i32 1
  %58 = load i64, ptr %57, align 8, !tbaa !24
  %59 = icmp uge i64 %54, %58
  br i1 %59, label %60, label %64

60:                                               ; preds = %53
  %61 = load ptr, ptr %4, align 8, !tbaa !3
  %62 = load ptr, ptr %6, align 8, !tbaa !8
  call void @ossl_list_uint_set_remove(ptr noundef %61, ptr noundef %62)
  %63 = load ptr, ptr %6, align 8, !tbaa !8
  call void @CRYPTO_free(ptr noundef %63, ptr noundef @.str, i32 noundef 280)
  br label %131

64:                                               ; preds = %53, %46
  %65 = load i64, ptr %9, align 8, !tbaa !22
  %66 = load ptr, ptr %6, align 8, !tbaa !8
  %67 = getelementptr inbounds nuw %struct.uint_set_item_st, ptr %66, i32 0, i32 1
  %68 = getelementptr inbounds nuw %struct.uint_range_st, ptr %67, i32 0, i32 0
  %69 = load i64, ptr %68, align 8, !tbaa !25
  %70 = icmp ule i64 %65, %69
  br i1 %70, label %71, label %84

71:                                               ; preds = %64
  %72 = load i64, ptr %10, align 8, !tbaa !22
  %73 = load ptr, ptr %6, align 8, !tbaa !8
  %74 = getelementptr inbounds nuw %struct.uint_set_item_st, ptr %73, i32 0, i32 1
  %75 = getelementptr inbounds nuw %struct.uint_range_st, ptr %74, i32 0, i32 0
  %76 = load i64, ptr %75, align 8, !tbaa !25
  %77 = icmp uge i64 %72, %76
  br i1 %77, label %78, label %84

78:                                               ; preds = %71
  %79 = load i64, ptr %10, align 8, !tbaa !22
  %80 = add i64 %79, 1
  %81 = load ptr, ptr %6, align 8, !tbaa !8
  %82 = getelementptr inbounds nuw %struct.uint_set_item_st, ptr %81, i32 0, i32 1
  %83 = getelementptr inbounds nuw %struct.uint_range_st, ptr %82, i32 0, i32 0
  store i64 %80, ptr %83, align 8, !tbaa !25
  br label %130

84:                                               ; preds = %71, %64
  %85 = load i64, ptr %10, align 8, !tbaa !22
  %86 = load ptr, ptr %6, align 8, !tbaa !8
  %87 = getelementptr inbounds nuw %struct.uint_set_item_st, ptr %86, i32 0, i32 1
  %88 = getelementptr inbounds nuw %struct.uint_range_st, ptr %87, i32 0, i32 1
  %89 = load i64, ptr %88, align 8, !tbaa !24
  %90 = icmp uge i64 %85, %89
  br i1 %90, label %91, label %97

91:                                               ; preds = %84
  %92 = load i64, ptr %9, align 8, !tbaa !22
  %93 = sub i64 %92, 1
  %94 = load ptr, ptr %6, align 8, !tbaa !8
  %95 = getelementptr inbounds nuw %struct.uint_set_item_st, ptr %94, i32 0, i32 1
  %96 = getelementptr inbounds nuw %struct.uint_range_st, ptr %95, i32 0, i32 1
  store i64 %93, ptr %96, align 8, !tbaa !24
  br label %134

97:                                               ; preds = %84
  %98 = load i64, ptr %9, align 8, !tbaa !22
  %99 = load ptr, ptr %6, align 8, !tbaa !8
  %100 = getelementptr inbounds nuw %struct.uint_set_item_st, ptr %99, i32 0, i32 1
  %101 = getelementptr inbounds nuw %struct.uint_range_st, ptr %100, i32 0, i32 0
  %102 = load i64, ptr %101, align 8, !tbaa !25
  %103 = icmp ugt i64 %98, %102
  br i1 %103, label %104, label %127

104:                                              ; preds = %97
  %105 = load i64, ptr %10, align 8, !tbaa !22
  %106 = load ptr, ptr %6, align 8, !tbaa !8
  %107 = getelementptr inbounds nuw %struct.uint_set_item_st, ptr %106, i32 0, i32 1
  %108 = getelementptr inbounds nuw %struct.uint_range_st, ptr %107, i32 0, i32 1
  %109 = load i64, ptr %108, align 8, !tbaa !24
  %110 = icmp ult i64 %105, %109
  br i1 %110, label %111, label %127

111:                                              ; preds = %104
  %112 = load i64, ptr %10, align 8, !tbaa !22
  %113 = add i64 %112, 1
  %114 = load ptr, ptr %6, align 8, !tbaa !8
  %115 = getelementptr inbounds nuw %struct.uint_set_item_st, ptr %114, i32 0, i32 1
  %116 = getelementptr inbounds nuw %struct.uint_range_st, ptr %115, i32 0, i32 1
  %117 = load i64, ptr %116, align 8, !tbaa !24
  %118 = call ptr @create_set_item(i64 noundef %113, i64 noundef %117)
  store ptr %118, ptr %8, align 8, !tbaa !8
  %119 = load ptr, ptr %4, align 8, !tbaa !3
  %120 = load ptr, ptr %6, align 8, !tbaa !8
  %121 = load ptr, ptr %8, align 8, !tbaa !8
  call void @ossl_list_uint_set_insert_after(ptr noundef %119, ptr noundef %120, ptr noundef %121)
  %122 = load i64, ptr %9, align 8, !tbaa !22
  %123 = sub i64 %122, 1
  %124 = load ptr, ptr %6, align 8, !tbaa !8
  %125 = getelementptr inbounds nuw %struct.uint_set_item_st, ptr %124, i32 0, i32 1
  %126 = getelementptr inbounds nuw %struct.uint_range_st, ptr %125, i32 0, i32 1
  store i64 %123, ptr %126, align 8, !tbaa !24
  br label %134

127:                                              ; preds = %104, %97
  br label %128

128:                                              ; preds = %127
  br label %129

129:                                              ; preds = %128
  br label %130

130:                                              ; preds = %129, %78
  br label %131

131:                                              ; preds = %130, %60
  br label %132

132:                                              ; preds = %131
  %133 = load ptr, ptr %7, align 8, !tbaa !8
  store ptr %133, ptr %6, align 8, !tbaa !8
  br label %33, !llvm.loop !33

134:                                              ; preds = %111, %91, %45, %33
  store i32 1, ptr %3, align 4
  store i32 1, ptr %11, align 4
  br label %135

135:                                              ; preds = %134, %29
  call void @llvm.lifetime.end.p0(i64 8, ptr %10) #6
  call void @llvm.lifetime.end.p0(i64 8, ptr %9) #6
  call void @llvm.lifetime.end.p0(i64 8, ptr %8) #6
  call void @llvm.lifetime.end.p0(i64 8, ptr %7) #6
  call void @llvm.lifetime.end.p0(i64 8, ptr %6) #6
  %136 = load i32, ptr %3, align 4
  ret i32 %136
}