; Function Attrs: nounwind uwtable
define range(i32 0, 2) i32 @ossl_uint_set_remove(ptr noundef captures(none) %0, ptr noundef readonly captures(none) %1) local_unnamed_addr #1 {
  %3 = load i64, ptr %1, align 8, !tbaa !16
  %4 = getelementptr inbounds nuw i8, ptr %1, i64 8
  %5 = load i64, ptr %4, align 8, !tbaa !17
  %.not = icmp ugt i64 %3, %5
  br i1 %.not, label %.loopexit, label %6, !prof !18

6:                                                ; preds = %2
  %7 = getelementptr i8, ptr %0, i64 8
  %.val = load ptr, ptr %7, align 8, !tbaa !23
  %.not4459 = icmp eq ptr %.val, null
  br i1 %.not4459, label %.loopexit, label %.lr.ph

.lr.ph:                                           ; preds = %6
  %8 = getelementptr inbounds nuw i8, ptr %0, i64 16
  %9 = add i64 %5, 1
  br label %10

10:                                               ; preds = %.lr.ph, %58
  %.03860 = phi ptr [ %.val, %.lr.ph ], [ %.038.val, %58 ]
  %11 = getelementptr i8, ptr %.03860, i64 8
  %.038.val = load ptr, ptr %11, align 8, !tbaa !22
  %12 = getelementptr inbounds nuw i8, ptr %.03860, i64 16
  %13 = getelementptr inbounds nuw i8, ptr %.03860, i64 24
  %14 = load i64, ptr %13, align 8, !tbaa !21
  %15 = icmp ugt i64 %3, %14
  br i1 %15, label %.loopexit, label %16

16:                                               ; preds = %10
  %17 = load i64, ptr %12, align 8, !tbaa !20
  %.not45 = icmp ugt i64 %3, %17
  %.not46 = icmp ult i64 %5, %14
  %or.cond = or i1 %.not46, %.not45
  br i1 %or.cond, label %33, label %18

18:                                               ; preds = %16
  %19 = load ptr, ptr %0, align 8, !tbaa !3
  %20 = icmp eq ptr %19, %.03860
  br i1 %20, label %21, label %23

21:                                               ; preds = %18
  %22 = load ptr, ptr %.03860, align 8, !tbaa !10
  store ptr %22, ptr %0, align 8, !tbaa !3
  br label %23

23:                                               ; preds = %21, %18
  %24 = load ptr, ptr %7, align 8, !tbaa !23
  %25 = icmp eq ptr %24, %.03860
  br i1 %25, label %26, label %._crit_edge.i

26:                                               ; preds = %23
  store ptr %.038.val, ptr %7, align 8, !tbaa !23
  br label %._crit_edge.i

._crit_edge.i:                                    ; preds = %26, %23
  %.not.i = icmp eq ptr %.038.val, null
  %.pre19.i = load ptr, ptr %.03860, align 8, !tbaa !10
  br i1 %.not.i, label %28, label %27

27:                                               ; preds = %._crit_edge.i
  store ptr %.pre19.i, ptr %.038.val, align 8, !tbaa !10
  br label %28

28:                                               ; preds = %27, %._crit_edge.i
  %.not18.i = icmp eq ptr %.pre19.i, null
  br i1 %.not18.i, label %ossl_list_uint_set_remove.exit, label %29

29:                                               ; preds = %28
  %30 = getelementptr inbounds nuw i8, ptr %.pre19.i, i64 8
  store ptr %.038.val, ptr %30, align 8, !tbaa !22
  br label %ossl_list_uint_set_remove.exit

ossl_list_uint_set_remove.exit:                   ; preds = %28, %29
  %31 = load i64, ptr %8, align 8, !tbaa !19
  %32 = add i64 %31, -1
  store i64 %32, ptr %8, align 8, !tbaa !19
  tail call void @llvm.memset.p0.i64(ptr noundef nonnull align 8 dereferenceable(16) %.03860, i8 0, i64 16, i1 false)
  tail call void @CRYPTO_free(ptr noundef nonnull %.03860, ptr noundef nonnull @.str, i32 noundef 280) #6
  br label %58

33:                                               ; preds = %16
  %.not48 = icmp ult i64 %5, %17
  %or.cond50 = or i1 %.not45, %.not48
  br i1 %or.cond50, label %35, label %34

34:                                               ; preds = %33
  store i64 %9, ptr %12, align 8, !tbaa !20
  br label %58

35:                                               ; preds = %33
  br i1 %.not46, label %39, label %36

36:                                               ; preds = %35
  %37 = getelementptr inbounds nuw i8, ptr %.03860, i64 24
  %38 = add i64 %3, -1
  store i64 %38, ptr %37, align 8, !tbaa !21
  br label %.loopexit

39:                                               ; preds = %35
  br i1 %.not45, label %40, label %58

40:                                               ; preds = %39
  %41 = getelementptr inbounds nuw i8, ptr %.03860, i64 24
  %42 = tail call noalias ptr @CRYPTO_malloc(i64 noundef 32, ptr noundef nonnull @.str, i32 noundef 114) #6
  %43 = icmp eq ptr %42, null
  br i1 %43, label %create_set_item.exit, label %44

44:                                               ; preds = %40
  %45 = getelementptr inbounds nuw i8, ptr %42, i64 16
  store i64 %9, ptr %45, align 8, !tbaa !20
  %46 = getelementptr inbounds nuw i8, ptr %42, i64 24
  store i64 %14, ptr %46, align 8, !tbaa !21
  br label %create_set_item.exit

create_set_item.exit:                             ; preds = %40, %44
  %47 = getelementptr inbounds nuw i8, ptr %42, i64 8
  store ptr %.03860, ptr %47, align 8, !tbaa !22
  %48 = load ptr, ptr %.03860, align 8, !tbaa !10
  store ptr %48, ptr %42, align 8, !tbaa !10
  %.not.i52 = icmp eq ptr %48, null
  br i1 %.not.i52, label %51, label %49

49:                                               ; preds = %create_set_item.exit
  %50 = getelementptr inbounds nuw i8, ptr %48, i64 8
  store ptr %42, ptr %50, align 8, !tbaa !22
  br label %51

51:                                               ; preds = %49, %create_set_item.exit
  store ptr %42, ptr %.03860, align 8, !tbaa !10
  %52 = load ptr, ptr %7, align 8, !tbaa !23
  %53 = icmp eq ptr %52, %.03860
  br i1 %53, label %54, label %ossl_list_uint_set_insert_after.exit

54:                                               ; preds = %51
  store ptr %42, ptr %7, align 8, !tbaa !23
  br label %ossl_list_uint_set_insert_after.exit

ossl_list_uint_set_insert_after.exit:             ; preds = %51, %54
  %55 = load i64, ptr %8, align 8, !tbaa !19
  %56 = add i64 %55, 1
  store i64 %56, ptr %8, align 8, !tbaa !19
  %57 = add i64 %3, -1
  store i64 %57, ptr %41, align 8, !tbaa !21
  br label %.loopexit

58:                                               ; preds = %ossl_list_uint_set_remove.exit, %39, %34
  %.not44 = icmp eq ptr %.038.val, null
  br i1 %.not44, label %.loopexit, label %10, !llvm.loop !28

.loopexit:                                        ; preds = %10, %58, %6, %36, %ossl_list_uint_set_insert_after.exit, %2
  %.0 = phi i32 [ 0, %2 ], [ 1, %ossl_list_uint_set_insert_after.exit ], [ 1, %36 ], [ 1, %6 ], [ 1, %58 ], [ 1, %10 ]
  ret i32 %.0
}